Certificate:
    Data:
        Version: 3 (0x2)
        Serial Number: 1 (0x1)
        Signature Algorithm: rsassaPss         
         Hash Algorithm: sha256
         Mask Algorithm: mgf1 with sha256
          Salt Length: 0x20
         Trailer Field: 0xBC (default)
        Issuer: C=NZ, ST=Canterbury, O=University of Canterbury, OU=University of Canterbury, CN=TestRootCa
        Validity
            Not Before: Jun  8 00:55:53 2022 GMT
            Not After : Sep 11 00:55:53 2029 GMT
        Subject: C=NZ, ST=Canterbury, O=University of Canterbury, OU=University of Canterbury, CN=TestRootCa
        Subject Public Key Info:
            Public Key Algorithm: rsaEncryption
                RSA Public-Key: (4096 bit)
                Modulus:
                    00:a0:24:7c:68:69:0f:dd:b4:47:72:32:6d:b6:38:
                    34:af:b2:ea:b2:6a:d6:cd:16:35:a9:ef:8b:14:f0:
                    4f:ff:de:5f:6d:41:01:e3:62:54:62:76:02:53:f6:
                    65:86:9a:5d:88:b8:f7:7b:e6:82:27:4f:c9:4d:e9:
                    16:95:5d:64:15:00:3c:3e:de:d7:a0:2c:81:e8:e8:
                    00:b8:5d:a6:6b:1b:82:5e:16:a0:ad:d4:ba:2b:3d:
                    66:f8:29:a7:fd:b9:8f:6d:80:ef:75:bd:47:70:1e:
                    f2:11:95:ca:6e:30:e9:73:06:de:4e:7a:15:f0:cd:
                    ed:43:96:75:6a:fc:30:68:a2:1b:45:99:77:39:a5:
                    e2:99:8e:0e:bc:ea:53:32:a8:37:f9:cb:25:97:36:
                    51:74:aa:62:db:a1:de:6e:b5:51:24:29:59:a5:7b:
                    cb:15:d4:15:0d:0a:05:30:e8:0f:79:88:95:c2:8a:
                    a0:b5:d0:c9:6c:cd:8d:f2:20:35:65:e6:93:5e:7f:
                    b9:79:f2:9f:6c:c2:45:b0:be:c1:c1:fb:0d:9a:f4:
                    14:25:92:ee:44:ee:f1:26:9f:f0:6c:d7:22:fc:49:
                    ef:cd:7b:b0:d5:26:67:69:7c:54:06:b1:92:55:42:
                    71:62:2e:e8:ee:2c:0f:5d:a4:cd:3c:69:26:b9:b3:
                    13:98:c5:d3:c4:09:0e:2a:91:c9:64:15:1b:37:c8:
                    70:11:9b:ae:6a:de:42:38:38:88:5c:1e:8f:3e:61:
                    ea:7a:fc:a7:30:09:85:dc:05:4a:6a:da:11:52:74:
                    a6:56:c0:43:06:b8:44:62:f2:a7:27:39:d1:95:65:
                    1b:59:b9:64:99:08:7f:f8:73:10:17:9a:7c:04:c8:
                    8f:01:2c:57:49:ce:7b:1c:ec:aa:ef:db:76:e2:53:
                    73:1c:ec:cb:7b:9b:8a:06:3c:f0:6e:64:e0:c0:ce:
                    ee:b4:52:30:4a:a4:73:b1:67:8e:5a:58:97:a4:89:
                    bc:85:ad:de:b3:fa:92:73:b7:ce:a4:e0:96:8b:b5:
                    7a:a4:a0:81:02:9d:0a:39:59:84:dd:67:2a:4a:77:
                    81:4d:fd:40:ce:bc:11:5d:6f:bb:06:5b:79:04:32:
                    16:6b:23:7f:de:7a:38:c4:e2:11:8b:df:df:ed:8f:
                    e7:cf:75:5a:c0:b5:8f:58:fe:7b:33:df:fd:ec:77:
                    3b:e9:9f:35:f3:68:9d:ab:9d:78:72:9d:77:af:48:
                    2c:23:46:d8:38:5a:63:0f:3b:66:90:99:97:e2:ca:
                    42:0b:26:73:d9:d9:72:37:a3:e0:f5:01:de:83:23:
                    ea:58:13:9d:70:a8:df:bb:1d:61:4e:be:2b:ea:78:
                    32:d7:ed
                Exponent: 65537 (0x10001)
        X509v3 extensions:
            X509v3 Subject Key Identifier: 
                3D:29:B7:AC:4B:20:D6:23:0A:C2:79:41:09:58:4F:77:F6:92:4E:F3
            X509v3 Authority Key Identifier: 
                keyid:3D:29:B7:AC:4B:20:D6:23:0A:C2:79:41:09:58:4F:77:F6:92:4E:F3

            X509v3 Basic Constraints: critical
                CA:TRUE
            X509v3 Key Usage: critical
                Certificate Sign, CRL Sign
    Signature Algorithm: rsassaPss         
         Hash Algorithm: sha256
         Mask Algorithm: mgf1 with sha256
          Salt Length: 0x20
         Trailer Field: 0xBC (default)

         09:7c:2e:ef:65:42:c3:5f:22:17:bb:2b:b5:cf:08:08:c4:50:
         62:72:b2:97:cc:29:4b:c4:f9:ce:18:97:9d:03:df:94:48:48:
         d6:80:d2:84:7b:97:37:76:ab:37:69:bc:f1:e8:3f:9b:19:93:
         cc:db:d1:f6:53:b6:81:a8:4a:58:77:af:1f:e8:a4:a6:52:f8:
         01:31:42:48:c0:01:01:0b:16:23:48:cc:1e:f8:02:72:b3:f9:
         f9:37:47:e5:a8:40:18:e9:8d:95:54:38:2d:9c:88:7c:98:84:
         17:32:c1:8d:79:b8:4d:f8:96:a6:5b:3b:e7:85:ca:c2:86:0a:
         b2:f4:46:60:f6:4d:4c:f6:cb:f3:65:84:8e:76:03:f5:bd:bb:
         f5:74:83:24:1b:a8:a0:5b:0c:5f:61:90:42:f6:6f:2d:46:6c:
         39:12:bd:ad:24:0e:aa:10:60:de:1c:d5:79:be:86:ae:09:21:
         86:3c:9e:0c:15:50:31:58:39:3e:fc:4c:5a:f7:f1:ef:41:03:
         df:1a:3a:25:5a:08:8e:fd:e6:d4:11:cf:d9:c8:7b:1c:06:36:
         19:df:e9:1f:97:c0:48:30:20:4c:63:75:f8:b8:97:70:50:f5:
         a8:70:14:4a:5a:8e:ee:dd:01:be:a7:1b:21:00:59:7a:3a:e1:
         09:4d:a4:d6:cb:67:57:48:61:9d:6f:ca:80:cd:3f:07:bd:69:
         44:8b:d4:46:3a:22:66:47:10:fe:a7:0b:8a:81:ec:14:9f:93:
         19:4f:b2:0c:e9:da:80:5b:d2:68:5f:cc:d0:fc:d8:0c:16:a9:
         52:aa:9c:a6:47:f1:f0:a3:31:1a:ac:a1:70:7c:c0:5c:12:7b:
         38:58:dd:64:33:26:cb:09:46:a0:ea:32:df:4e:f2:76:86:d5:
         47:ab:7e:74:34:c0:9b:7d:db:c9:7a:7a:c2:87:ee:e4:05:c2:
         bb:ae:13:f8:95:3d:c8:36:9d:15:4b:b1:b0:6e:8c:cd:47:b8:
         f4:bc:6b:11:d0:59:ee:7e:81:c2:1d:be:6c:04:65:a9:3e:78:
         a4:ce:c9:9d:cf:6e:79:2a:83:da:0a:af:05:aa:38:c6:f2:dd:
         8e:47:1a:8b:54:cd:15:af:39:48:1f:f0:1b:df:03:1f:89:fb:
         c1:43:e7:8a:ff:75:e7:8f:f0:c2:90:d4:02:aa:d2:12:92:b1:
         8a:e9:86:61:85:60:c6:f8:16:cb:8c:1b:fb:c8:c6:d1:20:f6:
         42:5a:fc:44:fd:68:17:fc:28:f7:bc:2f:cc:cc:77:29:b8:80:
         55:44:ac:93:93:2b:13:f1:b2:56:5d:7f:b1:d7:e0:e7:23:d3:
         39:c9:d5:a7:6d:84:91:a6
-----BEGIN CERTIFICATE-----
MIIGODCCA/CgAwIBAgIBATA9BgkqhkiG9w0BAQowMKANMAsGCWCGSAFlAwQCAaEa
MBgGCSqGSIb3DQEBCDALBglghkgBZQMEAgGiAwIBIDB9MQswCQYDVQQGEwJOWjET
MBEGA1UECBMKQ2FudGVyYnVyeTEhMB8GA1UEChMYVW5pdmVyc2l0eSBvZiBDYW50
ZXJidXJ5MSEwHwYDVQQLExhVbml2ZXJzaXR5IG9mIENhbnRlcmJ1cnkxEzARBgNV
BAMTClRlc3RSb290Q2EwHhcNMjIwNjA4MDA1NTUzWhcNMjkwOTExMDA1NTUzWjB9
MQswCQYDVQQGEwJOWjETMBEGA1UECBMKQ2FudGVyYnVyeTEhMB8GA1UEChMYVW5p
dmVyc2l0eSBvZiBDYW50ZXJidXJ5MSEwHwYDVQQLExhVbml2ZXJzaXR5IG9mIENh
bnRlcmJ1cnkxEzARBgNVBAMTClRlc3RSb290Q2EwggIiMA0GCSqGSIb3DQEBAQUA
A4ICDwAwggIKAoICAQCgJHxoaQ/dtEdyMm22ODSvsuqyatbNFjWp74sU8E//3l9t
QQHjYlRidgJT9mWGml2IuPd75oInT8lN6RaVXWQVADw+3tegLIHo6AC4XaZrG4Je
FqCt1LorPWb4Kaf9uY9tgO91vUdwHvIRlcpuMOlzBt5OehXwze1DlnVq/DBoohtF
mXc5peKZjg686lMyqDf5yyWXNlF0qmLbod5utVEkKVmle8sV1BUNCgUw6A95iJXC
iqC10MlszY3yIDVl5pNef7l58p9swkWwvsHB+w2a9BQlku5E7vEmn/Bs1yL8Se/N
e7DVJmdpfFQGsZJVQnFiLujuLA9dpM08aSa5sxOYxdPECQ4qkclkFRs3yHARm65q
3kI4OIhcHo8+Yep6/KcwCYXcBUpq2hFSdKZWwEMGuERi8qcnOdGVZRtZuWSZCH/4
cxAXmnwEyI8BLFdJznsc7Krv23biU3Mc7Mt7m4oGPPBuZODAzu60UjBKpHOxZ45a
WJekibyFrd6z+pJzt86k4JaLtXqkoIECnQo5WYTdZypKd4FN/UDOvBFdb7sGW3kE
MhZrI3/eejjE4hGL39/tj+fPdVrAtY9Y/nsz3/3sdzvpnzXzaJ2rnXhynXevSCwj
Rtg4WmMPO2aQmZfiykILJnPZ2XI3o+D1Ad6DI+pYE51wqN+7HWFOvivqeDLX7QID
AQABo2MwYTAdBgNVHQ4EFgQUPSm3rEsg1iMKwnlBCVhPd/aSTvMwHwYDVR0jBBgw
FoAUPSm3rEsg1iMKwnlBCVhPd/aSTvMwDwYDVR0TAQH/BAUwAwEB/zAOBgNVHQ8B
Af8EBAMCAQYwPQYJKoZIhvcNAQEKMDCgDTALBglghkgBZQMEAgGhGjAYBgkqhkiG
9w0BAQgwCwYJYIZIAWUDBAIBogMCASADggIBAAl8Lu9lQsNfIhe7K7XPCAjEUGJy
spfMKUvE+c4Yl50D35RISNaA0oR7lzd2qzdpvPHoP5sZk8zb0fZTtoGoSlh3rx/o
pKZS+AExQkjAAQELFiNIzB74AnKz+fk3R+WoQBjpjZVUOC2ciHyYhBcywY15uE34
lqZbO+eFysKGCrL0RmD2TUz2y/NlhI52A/W9u/V0gyQbqKBbDF9hkEL2by1GbDkS
va0kDqoQYN4c1Xm+hq4JIYY8ngwVUDFYOT78TFr38e9BA98aOiVaCI795tQRz9nI
exwGNhnf6R+XwEgwIExjdfi4l3BQ9ahwFEpaju7dAb6nGyEAWXo64QlNpNbLZ1dI
YZ1vyoDNPwe9aUSL1EY6ImZHEP6nC4qB7BSfkxlPsgzp2oBb0mhfzND82AwWqVKq
nKZH8fCjMRqsoXB8wFwSezhY3WQzJssJRqDqMt9O8naG1UerfnQ0wJt928l6esKH
7uQFwruuE/iVPcg2nRVLsbBujM1HuPS8axHQWe5+gcIdvmwEZak+eKTOyZ3Pbnkq
g9oKrwWqOMby3Y5HGotUzRWvOUgf8BvfAx+J+8FD54r/deeP8MKQ1AKq0hKSsYrp
hmGFYMb4FsuMG/vIxtEg9kJa/ET9aBf8KPe8L8zMdym4gFVErJOTKxPxslZdf7HX
4Ocj0znJ1adthJGm
-----END CERTIFICATE-----
