Certificate:
    Data:
        Version: 3 (0x2)
        Serial Number: 2 (0x2)
        Signature Algorithm: rsassaPss         
         Hash Algorithm: sha256
         Mask Algorithm: mgf1 with sha256
          Salt Length: 0x20
         Trailer Field: 0xBC (default)
        Issuer: C=NZ, ST=Canterbury, O=University of Canterbury, OU=University of Canterbury, CN=TestRootCa
        Validity
            Not Before: Jun  8 01:03:09 2022 GMT
            Not After : Sep 20 01:03:09 2025 GMT
        Subject: C=NZ, ST=Canterbury, L=Christchurch, O=University of Canterbury, CN=MqttBroker
        Subject Public Key Info:
            Public Key Algorithm: rsaEncryption
                RSA Public-Key: (4096 bit)
                Modulus:
                    00:a7:87:a4:38:c7:d6:2f:ab:27:61:bc:a0:c7:fa:
                    c7:e6:94:52:f6:b7:f8:de:70:5b:89:3a:82:76:a9:
                    37:49:97:33:d7:fb:8f:1a:20:d6:63:3c:70:fe:c2:
                    f4:b6:cd:02:1c:47:ea:a2:25:6f:bf:a3:59:9c:df:
                    07:0d:c7:ae:d3:64:25:98:f2:0a:a6:2d:13:1b:70:
                    50:d5:62:8c:8e:a0:ef:e0:71:5b:0e:cb:de:e1:cd:
                    f4:64:86:ea:77:21:29:53:bc:d8:65:8d:9c:37:a9:
                    93:f9:bf:56:35:a0:05:81:ad:bd:6d:2f:d3:83:81:
                    5a:44:56:9f:59:46:11:3b:3d:47:8e:e8:f2:cd:4b:
                    96:af:8b:b8:70:f5:01:95:0f:8d:cc:23:db:be:fa:
                    eb:82:6c:83:5e:bf:60:43:7b:71:e3:c7:7e:79:ad:
                    66:f4:da:d4:2c:89:cc:11:1e:a5:5d:d7:a9:87:64:
                    98:8e:6e:50:a6:11:25:42:7d:40:aa:9d:4b:5c:71:
                    8d:7f:c7:56:c6:d7:a0:40:99:ef:2c:56:c7:4f:08:
                    47:82:f5:5c:28:96:99:63:60:30:e1:3c:9d:e4:2a:
                    67:f5:74:52:02:96:b1:1a:95:59:51:97:8f:6d:ae:
                    42:30:64:c1:99:b4:95:71:b3:b9:06:69:d5:b9:66:
                    0b:65:70:d6:e1:75:3e:25:c6:56:80:61:56:33:34:
                    83:d8:cc:63:1b:5b:dc:0f:c8:18:1f:c4:49:0c:0c:
                    d1:53:2e:32:b0:fd:e3:4f:ff:07:62:b3:a2:2b:93:
                    81:a4:4f:cd:dd:8a:ac:84:2e:e3:62:ef:1c:9a:59:
                    b7:c7:68:e4:a9:66:4e:d7:bd:c5:63:83:b5:28:1f:
                    60:40:af:f9:10:eb:b9:65:2f:f1:a7:9b:42:21:6d:
                    d3:7d:5d:a3:a8:26:2f:ec:55:ad:99:b1:cc:bd:a0:
                    7b:05:60:4c:22:54:d9:fe:34:7f:9b:e3:fe:02:99:
                    f9:08:42:3f:0d:73:2b:17:8e:7b:e6:c7:c1:45:7d:
                    56:91:9c:46:ec:7c:ae:88:ea:f0:84:70:ed:78:37:
                    ad:b3:29:e9:09:82:16:72:38:30:e0:d4:a3:9a:45:
                    0a:98:35:cc:6a:41:68:f9:39:88:74:6d:00:bf:87:
                    7b:86:2c:83:2c:c8:ec:96:62:b4:d1:bc:55:6a:1e:
                    64:63:cc:74:44:6e:b8:61:b6:86:6b:f9:32:aa:86:
                    1a:61:08:c3:bd:f9:10:3c:68:fe:fb:fa:04:66:36:
                    6a:8b:4a:15:15:25:26:0c:ae:92:07:a2:98:6e:95:
                    19:bc:5d:a3:0e:21:49:35:a8:e6:b2:18:7c:fc:08:
                    6a:b9:09
                Exponent: 65537 (0x10001)
        X509v3 extensions:
            X509v3 Subject Key Identifier: 
                4F:6F:05:FD:D4:1B:DD:DA:C8:BC:6A:66:18:32:E3:31:A3:7A:48:A2
            X509v3 Authority Key Identifier: 
                keyid:3D:29:B7:AC:4B:20:D6:23:0A:C2:79:41:09:58:4F:77:F6:92:4E:F3

            X509v3 Key Usage: critical
                Digital Signature
            X509v3 Basic Constraints: critical
                CA:TRUE
    Signature Algorithm: rsassaPss         
         Hash Algorithm: sha256
         Mask Algorithm: mgf1 with sha256
          Salt Length: 0x20
         Trailer Field: 0xBC (default)

         60:8a:a8:29:1d:81:57:55:35:cd:73:a2:e9:cd:7a:c7:28:a8:
         9d:9b:fd:5a:b9:a7:e8:f5:6a:a0:fc:9c:6c:b2:8a:e8:c1:69:
         b8:72:ac:7d:38:6d:fc:1a:68:35:98:92:5b:e4:3b:bc:a8:81:
         aa:a5:84:21:d7:10:56:33:3f:02:b0:50:39:c6:29:10:00:82:
         4d:a3:76:31:ee:ba:29:5d:b9:3d:3b:78:11:95:a4:de:00:5a:
         cc:55:e4:96:98:ce:ad:c6:59:59:39:e5:8c:62:fb:5d:4b:4d:
         a9:7b:5f:66:06:c8:1c:76:8f:60:9d:19:b0:e2:9d:12:44:76:
         fe:55:53:ba:7a:be:38:9b:a5:1d:1f:27:de:ff:0d:de:9e:e9:
         88:ef:8a:35:56:73:07:0d:42:ec:d4:9b:24:4d:49:c4:42:ff:
         c5:ec:4c:59:c7:9d:7a:07:22:c3:2b:54:56:7d:96:ee:62:16:
         05:66:96:83:24:c4:b6:0c:8e:29:af:cf:23:04:45:69:b3:fb:
         4d:fe:97:c3:29:e2:98:63:6c:02:e4:37:7a:2e:c4:24:70:7a:
         39:9b:9e:39:51:e4:c4:16:50:a7:56:34:f6:d7:ce:23:78:f8:
         81:16:63:9a:f6:42:8b:e5:fc:2e:9b:06:3c:25:aa:9b:86:14:
         7e:7e:8b:f4:2a:0c:fd:05:05:fe:7c:0a:7e:91:a6:54:d6:c9:
         04:c1:bf:c8:74:19:28:b9:a7:d1:c5:25:48:0f:89:57:7a:00:
         a2:3a:ce:56:74:fe:d4:a0:34:3d:7d:c0:0b:2f:4c:b3:67:66:
         e2:3f:13:84:bc:df:90:2a:76:89:b7:a7:e8:b1:e7:5d:98:37:
         03:ee:28:b6:a9:d8:32:b7:38:01:fd:ca:78:57:e4:db:bc:a4:
         40:d7:eb:6a:26:18:b2:44:be:e2:b1:6a:0b:6f:ad:29:a8:44:
         87:78:6a:02:1a:38:fb:96:be:74:68:cd:4a:c0:41:87:9d:e1:
         05:5f:39:12:8a:d5:17:5a:06:1d:75:6c:69:8c:83:13:ee:3b:
         e6:fc:2a:ed:63:bb:f9:9c:de:16:ac:c2:79:f9:31:fa:62:69:
         00:71:83:f7:d8:12:c4:a7:a9:a1:b6:5e:52:2a:2a:2c:5a:94:
         ee:28:e0:95:26:1e:e2:b1:49:42:fa:5b:d7:9d:d5:92:7b:23:
         49:8c:96:0f:51:28:a7:57:c8:9b:74:55:7a:a8:2e:ab:32:74:
         18:47:e4:ad:e8:af:a6:5b:6a:a6:cf:48:8a:ad:90:88:ee:0f:
         0c:81:a2:3a:01:1c:cb:54:8f:9c:b7:db:91:d0:f0:7a:ce:d5:
         05:c4:d1:a4:b5:0c:11:02
-----BEGIN CERTIFICATE-----
MIIGLDCCA+SgAwIBAgIBAjA9BgkqhkiG9w0BAQowMKANMAsGCWCGSAFlAwQCAaEa
MBgGCSqGSIb3DQEBCDALBglghkgBZQMEAgGiAwIBIDB9MQswCQYDVQQGEwJOWjET
MBEGA1UECBMKQ2FudGVyYnVyeTEhMB8GA1UEChMYVW5pdmVyc2l0eSBvZiBDYW50
ZXJidXJ5MSEwHwYDVQQLExhVbml2ZXJzaXR5IG9mIENhbnRlcmJ1cnkxEzARBgNV
BAMTClRlc3RSb290Q2EwHhcNMjIwNjA4MDEwMzA5WhcNMjUwOTIwMDEwMzA5WjBx
MQswCQYDVQQGEwJOWjETMBEGA1UECBMKQ2FudGVyYnVyeTEVMBMGA1UEBxMMQ2hy
aXN0Y2h1cmNoMSEwHwYDVQQKExhVbml2ZXJzaXR5IG9mIENhbnRlcmJ1cnkxEzAR
BgNVBAMTCk1xdHRCcm9rZXIwggIiMA0GCSqGSIb3DQEBAQUAA4ICDwAwggIKAoIC
AQCnh6Q4x9YvqydhvKDH+sfmlFL2t/jecFuJOoJ2qTdJlzPX+48aINZjPHD+wvS2
zQIcR+qiJW+/o1mc3wcNx67TZCWY8gqmLRMbcFDVYoyOoO/gcVsOy97hzfRkhup3
ISlTvNhljZw3qZP5v1Y1oAWBrb1tL9ODgVpEVp9ZRhE7PUeO6PLNS5avi7hw9QGV
D43MI9u++uuCbINev2BDe3Hjx355rWb02tQsicwRHqVd16mHZJiOblCmESVCfUCq
nUtccY1/x1bG16BAme8sVsdPCEeC9VwolpljYDDhPJ3kKmf1dFIClrEalVlRl49t
rkIwZMGZtJVxs7kGadW5ZgtlcNbhdT4lxlaAYVYzNIPYzGMbW9wPyBgfxEkMDNFT
LjKw/eNP/wdis6Irk4GkT83diqyELuNi7xyaWbfHaOSpZk7XvcVjg7UoH2BAr/kQ
67llL/Gnm0IhbdN9XaOoJi/sVa2Zscy9oHsFYEwiVNn+NH+b4/4CmfkIQj8NcysX
jnvmx8FFfVaRnEbsfK6I6vCEcO14N62zKekJghZyODDg1KOaRQqYNcxqQWj5OYh0
bQC/h3uGLIMsyOyWYrTRvFVqHmRjzHREbrhhtoZr+TKqhhphCMO9+RA8aP77+gRm
NmqLShUVJSYMrpIHophulRm8XaMOIUk1qOayGHz8CGq5CQIDAQABo2MwYTAdBgNV
HQ4EFgQUT28F/dQb3drIvGpmGDLjMaN6SKIwHwYDVR0jBBgwFoAUPSm3rEsg1iMK
wnlBCVhPd/aSTvMwDgYDVR0PAQH/BAQDAgeAMA8GA1UdEwEB/wQFMAMBAf8wPQYJ
KoZIhvcNAQEKMDCgDTALBglghkgBZQMEAgGhGjAYBgkqhkiG9w0BAQgwCwYJYIZI
AWUDBAIBogMCASADggIBAGCKqCkdgVdVNc1zounNescoqJ2b/Vq5p+j1aqD8nGyy
iujBabhyrH04bfwaaDWYklvkO7yogaqlhCHXEFYzPwKwUDnGKRAAgk2jdjHuuild
uT07eBGVpN4AWsxV5JaYzq3GWVk55Yxi+11LTal7X2YGyBx2j2CdGbDinRJEdv5V
U7p6vjibpR0fJ97/Dd6e6YjvijVWcwcNQuzUmyRNScRC/8XsTFnHnXoHIsMrVFZ9
lu5iFgVmloMkxLYMjimvzyMERWmz+03+l8Mp4phjbALkN3ouxCRwejmbnjlR5MQW
UKdWNPbXziN4+IEWY5r2Qovl/C6bBjwlqpuGFH5+i/QqDP0FBf58Cn6RplTWyQTB
v8h0GSi5p9HFJUgPiVd6AKI6zlZ0/tSgND19wAsvTLNnZuI/E4S835Aqdom3p+ix
512YNwPuKLap2DK3OAH9ynhX5Nu8pEDX62omGLJEvuKxagtvrSmoRId4agIaOPuW
vnRozUrAQYed4QVfORKK1RdaBh11bGmMgxPuO+b8Ku1ju/mc3haswnn5MfpiaQBx
g/fYEsSnqaG2XlIqKixalO4o4JUmHuKxSUL6W9ed1ZJ7I0mMlg9RKKdXyJt0VXqo
LqsydBhH5K3or6ZbaqbPSIqtkIjuDwyBojoBHMtUj5y325HQ8HrO1QXE0aS1DBEC
-----END CERTIFICATE-----
